target datalayout = "e-m:e-p270:32:32-p271:32:32-p272:64:64-i64:64-i128:128-f80:128-n8:16:32:64-S128"
target triple = "x86_64-pc-linux-gnu"

@_ZL22stbi__g_failure_reason = internal global ptr null, align 8
@.str = private unnamed_addr constant [3 x i8] c"rb\00", align 1
@.str.1 = private unnamed_addr constant [12 x i8] c"can't fopen\00", align 1

; Function Attrs: mustprogress nounwind uwtable
define internal noundef i32 @_ZL9stbi__errPKc(ptr noundef %0) #0 {
  %2 = alloca ptr, align 8
  store ptr %0, ptr %2, align 8, !tbaa !5
  %3 = load ptr, ptr %2, align 8, !tbaa !5
  store ptr %3, ptr @_ZL22stbi__g_failure_reason, align 8, !tbaa !5
  ret i32 0
}

; Function Attrs: mustprogress uwtable
define internal noundef ptr @_ZL11stbi__fopenPKcS0_(ptr noundef %0, ptr noundef %1) #2 {
  %3 = alloca ptr, align 8
  %4 = alloca ptr, align 8
  %5 = alloca ptr, align 8
  store ptr %0, ptr %3, align 8, !tbaa !5
  store ptr %1, ptr %4, align 8, !tbaa !5
  call void @llvm.lifetime.start.p0(i64 8, ptr %5) #22
  %6 = load ptr, ptr %3, align 8, !tbaa !5
  %7 = load ptr, ptr %4, align 8, !tbaa !5
  %8 = call noalias ptr @fopen(ptr noundef %6, ptr noundef %7)
  store ptr %8, ptr %5, align 8, !tbaa !15
  %9 = load ptr, ptr %5, align 8, !tbaa !15
  call void @llvm.lifetime.end.p0(i64 8, ptr %5) #22
  ret ptr %9
}

; Function Attrs: mustprogress uwtable
define dso_local i32 @stbi_is_16_bit(ptr noundef %0) #2 {
  %2 = alloca i32, align 4
  %3 = alloca ptr, align 8
  %4 = alloca ptr, align 8
  %5 = alloca i32, align 4
  %6 = alloca i32, align 4
  store ptr %0, ptr %3, align 8, !tbaa !5
  call void @llvm.lifetime.start.p0(i64 8, ptr %4) #22
  %7 = load ptr, ptr %3, align 8, !tbaa !5
  %8 = call noundef ptr @_ZL11stbi__fopenPKcS0_(ptr noundef %7, ptr noundef @.str)
  store ptr %8, ptr %4, align 8, !tbaa !15
  call void @llvm.lifetime.start.p0(i64 4, ptr %5) #22
  %9 = load ptr, ptr %4, align 8, !tbaa !15
  %10 = icmp ne ptr %9, null
  br i1 %10, label %13, label %11

11:                                               ; preds = %1
  %12 = call noundef i32 @_ZL9stbi__errPKc(ptr noundef @.str.1)
  store i32 %12, ptr %2, align 4
  store i32 1, ptr %6, align 4
  br label %19

13:                                               ; preds = %1
  %14 = load ptr, ptr %4, align 8, !tbaa !15
  %15 = call i32 @stbi_is_16_bit_from_file(ptr noundef %14)
  store i32 %15, ptr %5, align 4, !tbaa !11
  %16 = load ptr, ptr %4, align 8, !tbaa !15
  %17 = call i32 @fclose(ptr noundef %16)
  %18 = load i32, ptr %5, align 4, !tbaa !11
  store i32 %18, ptr %2, align 4
  store i32 1, ptr %6, align 4
  br label %19

19:                                               ; preds = %13, %11
  call void @llvm.lifetime.end.p0(i64 4, ptr %5) #22
  call void @llvm.lifetime.end.p0(i64 8, ptr %4) #22
  %20 = load i32, ptr %2, align 4
  ret i32 %20
}