; Function Attrs: mustprogress uwtable
define dso_local range(i32 0, 2) i32 @stbi_is_16_bit(ptr noundef readonly captures(none) %0) local_unnamed_addr #4 {
  %2 = tail call noalias noundef ptr @fopen(ptr noundef readonly %0, ptr noundef nonnull @.str)
  %.not = icmp eq ptr %2, null
  br i1 %.not, label %3, label %4

3:                                                ; preds = %1
  store ptr @.str.1, ptr @_ZL22stbi__g_failure_reason, align 8, !tbaa !5
  br label %7

4:                                                ; preds = %1
  %5 = tail call i32 @stbi_is_16_bit_from_file(ptr noundef nonnull %2)
  %6 = tail call i32 @fclose(ptr noundef nonnull %2)
  br label %7

7:                                                ; preds = %4, %3
  %.0 = phi i32 [ %5, %4 ], [ 0, %3 ]
  ret i32 %.0
}